; Function Attrs: nounwind uwtable
define dso_local void @ExplainQueryText(ptr noundef readonly captures(none) %0, ptr noundef readonly captures(none) %1) local_unnamed_addr #0 {
  %3 = getelementptr inbounds nuw i8, ptr %1, i64 16
  %4 = load ptr, ptr %3, align 8
  %.not = icmp eq ptr %4, null
  br i1 %.not, label %6, label %5

5:                                                ; preds = %2
  tail call fastcc void @ExplainProperty(ptr noundef nonnull @.str.45, ptr noundef null, ptr noundef nonnull %4, i1 noundef zeroext false, ptr noundef readonly %0)
  br label %6

6:                                                ; preds = %5, %2
  ret void
}